target datalayout = "e-m:e-p270:32:32-p271:32:32-p272:64:64-i64:64-i128:128-f80:128-n8:16:32:64-S128"
target triple = "x86_64-pc-linux-gnu"

%struct.rb_data_type_struct = type { ptr, %struct.anon.12, ptr, ptr, i64 }
%struct.anon.12 = type { ptr, ptr, ptr, ptr, [1 x ptr] }
%struct.ASTNodeData = type { i64, ptr }
%struct.rb_ast_struct = type { ptr, %struct.rb_ast_body_struct }
%struct.rb_ast_body_struct = type { ptr, ptr, i32, i8 }
%struct.rb_execution_context_struct = type { ptr, i64, ptr, ptr, i32, i32, ptr, ptr, ptr, i64, i64, i64, ptr, i64, ptr, i64, i64, i8, i8, i64, %struct.anon.7 }
%struct.anon.7 = type { ptr, ptr, i64, [1 x %struct.__jmp_buf_tag] }
%struct.__jmp_buf_tag = type { [8 x i64], i32, %struct.__sigset_t }
%struct.__sigset_t = type { [16 x i64] }
%struct.RTypedData = type { %struct.RBasic, ptr, i64, ptr }
%struct.RBasic = type { i64, i64 }

@rb_cNode = internal global i64 0, align 8
@ruby_current_ec = external thread_local global ptr, align 8
@rb_node_type = internal constant %struct.rb_data_type_struct { ptr @.str.24, %struct.anon.12 { ptr @node_gc_mark, ptr inttoptr (i64 -1 to ptr), ptr @node_memsize, ptr null, [1 x ptr] zeroinitializer }, ptr null, ptr null, i64 1 }, align 8
@.str.25 = private unnamed_addr constant [2 x i8] c"r\00", align 1
@rb_ast_parse_file.rbimpl_id = internal global i64 0, align 8
@.str.26 = private unnamed_addr constant [13 x i8] c"set_encoding\00", align 1
@.str.27 = private unnamed_addr constant [2 x i8] c"-\00", align 1

; Function Attrs: inlinehint nounwind sspstrong uwtable
define internal zeroext i1 @RTYPEDDATA_EMBEDDED_P(i64 noundef %0) #5 {
  %2 = alloca i64, align 8
  store i64 %0, ptr %2, align 8, !tbaa !12
  %3 = load i64, ptr %2, align 8, !tbaa !12
  %4 = inttoptr i64 %3 to ptr
  %5 = getelementptr inbounds nuw %struct.RTypedData, ptr %4, i32 0, i32 2
  %6 = load i64, ptr %5, align 8, !tbaa !114
  %7 = and i64 %6, 2
  %8 = icmp ne i64 %7, 0
  ret i1 %8
}

; Function Attrs: inlinehint nounwind sspstrong uwtable
define internal ptr @RTYPEDDATA_GET_DATA(i64 noundef %0) #5 {
  %2 = alloca i64, align 8
  %3 = alloca i64, align 8
  store i64 %0, ptr %2, align 8, !tbaa !12
  call void @llvm.lifetime.start.p0(i64 8, ptr %3) #16
  store i64 32, ptr %3, align 8, !tbaa !12
  %4 = load i64, ptr %2, align 8, !tbaa !12
  %5 = call zeroext i1 @RTYPEDDATA_EMBEDDED_P(i64 noundef %4)
  br i1 %5, label %6, label %10

6:                                                ; preds = %1
  %7 = load i64, ptr %2, align 8, !tbaa !12
  %8 = inttoptr i64 %7 to ptr
  %9 = getelementptr i8, ptr %8, i64 32
  br label %15

10:                                               ; preds = %1
  %11 = load i64, ptr %2, align 8, !tbaa !12
  %12 = inttoptr i64 %11 to ptr
  %13 = getelementptr inbounds nuw %struct.RTypedData, ptr %12, i32 0, i32 3
  %14 = load ptr, ptr %13, align 8, !tbaa !110
  br label %15

15:                                               ; preds = %10, %6
  %16 = phi ptr [ %9, %6 ], [ %14, %10 ]
  call void @llvm.lifetime.end.p0(i64 8, ptr %3) #16
  ret ptr %16
}

; Function Attrs: nounwind sspstrong uwtable
define internal void @setup_node(i64 noundef %0, i64 noundef %1, ptr noundef %2) #0 {
  %4 = alloca i64, align 8
  %5 = alloca i64, align 8
  %6 = alloca ptr, align 8
  %7 = alloca ptr, align 8
  store i64 %0, ptr %4, align 8, !tbaa !12
  store i64 %1, ptr %5, align 8, !tbaa !12
  store ptr %2, ptr %6, align 8, !tbaa !109
  call void @llvm.lifetime.start.p0(i64 8, ptr %7) #16
  %8 = load i64, ptr %4, align 8, !tbaa !12
  %9 = call ptr @rb_check_typeddata(i64 noundef %8, ptr noundef @rb_node_type)
  store ptr %9, ptr %7, align 8, !tbaa !44
  %10 = load i64, ptr %5, align 8, !tbaa !12
  %11 = load ptr, ptr %7, align 8, !tbaa !44
  %12 = getelementptr inbounds nuw %struct.ASTNodeData, ptr %11, i32 0, i32 0
  store i64 %10, ptr %12, align 8, !tbaa !54
  %13 = load ptr, ptr %6, align 8, !tbaa !109
  %14 = load ptr, ptr %7, align 8, !tbaa !44
  %15 = getelementptr inbounds nuw %struct.ASTNodeData, ptr %14, i32 0, i32 1
  store ptr %13, ptr %15, align 8, !tbaa !46
  call void @llvm.lifetime.end.p0(i64 8, ptr %7) #16
  ret void
}

; Function Attrs: nounwind sspstrong uwtable
define internal i64 @rb_ast_node_alloc(i64 noundef %0) #0 {
  %2 = alloca i64, align 8
  %3 = alloca ptr, align 8
  %4 = alloca i64, align 8
  %5 = alloca i64, align 8
  %6 = alloca i64, align 8
  store i64 %0, ptr %2, align 8, !tbaa !12
  call void @llvm.lifetime.start.p0(i64 8, ptr %3) #16
  call void @llvm.lifetime.start.p0(i64 8, ptr %4) #16
  call void @llvm.lifetime.start.p0(i64 8, ptr %5) #16
  %7 = load i64, ptr %2, align 8, !tbaa !12
  %8 = call i64 @rb_data_typed_object_zalloc(i64 noundef %7, i64 noundef 16, ptr noundef @rb_node_type)
  store i64 %8, ptr %5, align 8, !tbaa !12
  %9 = load i64, ptr %5, align 8, !tbaa !12
  %10 = call ptr @RTYPEDDATA_GET_DATA(i64 noundef %9)
  store ptr %10, ptr %3, align 8, !tbaa !44
  %11 = load i64, ptr %5, align 8, !tbaa !12
  store i64 %11, ptr %6, align 8, !tbaa !12
  call void @llvm.lifetime.end.p0(i64 8, ptr %5) #16
  %12 = load i64, ptr %6, align 8, !tbaa !12
  store i64 %12, ptr %4, align 8, !tbaa !12
  %13 = load i64, ptr %4, align 8, !tbaa !12
  call void @llvm.lifetime.end.p0(i64 8, ptr %4) #16
  call void @llvm.lifetime.end.p0(i64 8, ptr %3) #16
  ret i64 %13
}

; Function Attrs: nounwind sspstrong uwtable
define internal i64 @ast_new_internal(i64 noundef %0, ptr noundef %1) #0 {
  %3 = alloca i64, align 8
  %4 = alloca ptr, align 8
  %5 = alloca i64, align 8
  store i64 %0, ptr %3, align 8, !tbaa !12
  store ptr %1, ptr %4, align 8, !tbaa !109
  call void @llvm.lifetime.start.p0(i64 8, ptr %5) #16
  %6 = load i64, ptr @rb_cNode, align 8, !tbaa !12
  %7 = call i64 @rb_ast_node_alloc(i64 noundef %6)
  store i64 %7, ptr %5, align 8, !tbaa !12
  %8 = load i64, ptr %5, align 8, !tbaa !12
  %9 = load i64, ptr %3, align 8, !tbaa !12
  %10 = load ptr, ptr %4, align 8, !tbaa !109
  call void @setup_node(i64 noundef %8, i64 noundef %9, ptr noundef %10)
  %11 = load i64, ptr %5, align 8, !tbaa !12
  call void @llvm.lifetime.end.p0(i64 8, ptr %5) #16
  ret i64 %11
}

; Function Attrs: inlinehint nounwind sspstrong uwtable
define internal ptr @rb_current_execution_context(i1 noundef zeroext %0) #5 {
  %2 = alloca i8, align 1
  %3 = alloca ptr, align 8
  %4 = zext i1 %0 to i8
  store i8 %4, ptr %2, align 1, !tbaa !108
  call void @llvm.lifetime.start.p0(i64 8, ptr %3) #16
  %5 = call align 8 ptr @llvm.threadlocal.address.p0(ptr align 8 @ruby_current_ec)
  %6 = load ptr, ptr %5, align 8, !tbaa !7
  store ptr %6, ptr %3, align 8, !tbaa !7
  %7 = load ptr, ptr %3, align 8, !tbaa !7
  call void @llvm.lifetime.end.p0(i64 8, ptr %3) #16
  ret ptr %7
}

; Function Attrs: inlinehint nounwind sspstrong willreturn memory(none) uwtable
define internal zeroext i1 @RB_TEST(i64 noundef %0) #3 {
  %2 = alloca i64, align 8
  store i64 %0, ptr %2, align 8, !tbaa !12
  %3 = load i64, ptr %2, align 8, !tbaa !12
  %4 = and i64 %3, -5
  %5 = icmp ne i64 %4, 0
  ret i1 %5
}

; Function Attrs: nounwind sspstrong uwtable
define internal i64 @ast_parse_new() #0 {
  %1 = call i64 @rb_parser_new()
  %2 = call i64 @rb_parser_set_context(i64 noundef %1, ptr noundef null, i32 noundef 0)
  ret i64 %2
}

; Function Attrs: inlinehint nounwind sspstrong uwtable
define internal i64 @rbimpl_strlen(ptr noundef nonnull %0) #5 {
  %2 = alloca ptr, align 8
  store ptr %0, ptr %2, align 8, !tbaa !117
  %3 = load ptr, ptr %2, align 8, !tbaa !117
  %4 = call i64 @strlen(ptr noundef %3) #18
  ret i64 %4
}

; Function Attrs: inlinehint nounwind sspstrong willreturn memory(read) uwtable
define internal i64 @rb_intern_const(ptr noundef nonnull %0) #8 {
  %2 = alloca ptr, align 8
  %3 = alloca i64, align 8
  store ptr %0, ptr %2, align 8, !tbaa !117
  call void @llvm.lifetime.start.p0(i64 8, ptr %3) #16
  %4 = load ptr, ptr %2, align 8, !tbaa !117
  %5 = call i64 @strlen(ptr noundef %4) #18
  store i64 %5, ptr %3, align 8, !tbaa !12
  %6 = load ptr, ptr %2, align 8, !tbaa !117
  %7 = load i64, ptr %3, align 8, !tbaa !12
  %8 = call i64 @rb_intern2(ptr noundef %6, i64 noundef %7)
  call void @llvm.lifetime.end.p0(i64 8, ptr %3) #16
  ret i64 %8
}

; Function Attrs: nounwind sspstrong uwtable
define internal i64 @ast_parse_done(i64 noundef %0) #0 {
  %2 = alloca i64, align 8
  %3 = alloca ptr, align 8
  store i64 %0, ptr %2, align 8, !tbaa !12
  call void @llvm.lifetime.start.p0(i64 8, ptr %3) #16
  %4 = load i64, ptr %2, align 8, !tbaa !12
  %5 = call ptr @rb_ruby_ast_data_get(i64 noundef %4)
  store ptr %5, ptr %3, align 8, !tbaa !55
  %6 = load ptr, ptr %3, align 8, !tbaa !55
  %7 = getelementptr inbounds nuw %struct.rb_ast_struct, ptr %6, i32 0, i32 1
  %8 = getelementptr inbounds nuw %struct.rb_ast_body_struct, ptr %7, i32 0, i32 0
  %9 = load ptr, ptr %8, align 8, !tbaa !99
  %10 = icmp ne ptr %9, null
  br i1 %10, label %16, label %11

11:                                               ; preds = %1
  %12 = load ptr, ptr %3, align 8, !tbaa !55
  call void @rb_ast_dispose(ptr noundef %12)
  %13 = call ptr @rb_current_execution_context(i1 noundef zeroext true)
  %14 = getelementptr inbounds nuw %struct.rb_execution_context_struct, ptr %13, i32 0, i32 15
  %15 = load i64, ptr %14, align 8, !tbaa !100
  call void @rb_exc_raise(i64 noundef %15) #17
  unreachable

16:                                               ; preds = %1
  %17 = load i64, ptr %2, align 8, !tbaa !12
  %18 = load ptr, ptr %3, align 8, !tbaa !55
  %19 = getelementptr inbounds nuw %struct.rb_ast_struct, ptr %18, i32 0, i32 1
  %20 = getelementptr inbounds nuw %struct.rb_ast_body_struct, ptr %19, i32 0, i32 0
  %21 = load ptr, ptr %20, align 8, !tbaa !99
  %22 = call i64 @ast_new_internal(i64 noundef %17, ptr noundef %21)
  call void @llvm.lifetime.end.p0(i64 8, ptr %3) #16
  ret i64 %22
}

; Function Attrs: nounwind sspstrong uwtable
define internal i64 @setup_vparser(i64 noundef %0, i64 noundef %1, i64 noundef %2) #0 {
  %4 = alloca i64, align 8
  %5 = alloca i64, align 8
  %6 = alloca i64, align 8
  %7 = alloca i64, align 8
  store i64 %0, ptr %4, align 8, !tbaa !12
  store i64 %1, ptr %5, align 8, !tbaa !12
  store i64 %2, ptr %6, align 8, !tbaa !12
  call void @llvm.lifetime.start.p0(i64 8, ptr %7) #16
  %8 = call i64 @ast_parse_new()
  store i64 %8, ptr %7, align 8, !tbaa !12
  %9 = load i64, ptr %4, align 8, !tbaa !12
  %10 = call zeroext i1 @RB_TEST(i64 noundef %9) #19
  br i1 %10, label %11, label %13

11:                                               ; preds = %3
  %12 = load i64, ptr %7, align 8, !tbaa !12
  call void @rb_parser_set_script_lines(i64 noundef %12)
  br label %13

13:                                               ; preds = %11, %3
  %14 = load i64, ptr %5, align 8, !tbaa !12
  %15 = call zeroext i1 @RB_TEST(i64 noundef %14) #19
  br i1 %15, label %16, label %18

16:                                               ; preds = %13
  %17 = load i64, ptr %7, align 8, !tbaa !12
  call void @rb_parser_error_tolerant(i64 noundef %17)
  br label %18

18:                                               ; preds = %16, %13
  %19 = load i64, ptr %6, align 8, !tbaa !12
  %20 = call zeroext i1 @RB_TEST(i64 noundef %19) #19
  br i1 %20, label %21, label %23

21:                                               ; preds = %18
  %22 = load i64, ptr %7, align 8, !tbaa !12
  call void @rb_parser_keep_tokens(i64 noundef %22)
  br label %23

23:                                               ; preds = %21, %18
  %24 = load i64, ptr %7, align 8, !tbaa !12
  call void @llvm.lifetime.end.p0(i64 8, ptr %7) #16
  ret i64 %24
}

; Function Attrs: inlinehint nounwind sspstrong uwtable
define internal i64 @rbimpl_str_new_cstr(ptr noundef nonnull %0) #5 {
  %2 = alloca ptr, align 8
  %3 = alloca i64, align 8
  store ptr %0, ptr %2, align 8, !tbaa !117
  call void @llvm.lifetime.start.p0(i64 8, ptr %3) #16
  %4 = load ptr, ptr %2, align 8, !tbaa !117
  %5 = call i64 @rbimpl_strlen(ptr noundef %4)
  store i64 %5, ptr %3, align 8, !tbaa !12
  %6 = load ptr, ptr %2, align 8, !tbaa !117
  %7 = load i64, ptr %3, align 8, !tbaa !12
  %8 = call i64 @rb_str_new_static(ptr noundef %6, i64 noundef %7)
  call void @llvm.lifetime.end.p0(i64 8, ptr %3) #16
  ret i64 %8
}

; Function Attrs: inlinehint nounwind sspstrong memory(argmem: readwrite, inaccessiblemem: readwrite) uwtable
define internal i64 @rbimpl_intern_const(ptr noundef nonnull %0, ptr noundef nonnull %1) #7 {
  %3 = alloca ptr, align 8
  %4 = alloca ptr, align 8
  store ptr %0, ptr %3, align 8, !tbaa !116
  store ptr %1, ptr %4, align 8, !tbaa !117
  br label %5

5:                                                ; preds = %10, %2
  %6 = load ptr, ptr %3, align 8, !tbaa !116
  %7 = load i64, ptr %6, align 8, !tbaa !12
  %8 = icmp ne i64 %7, 0
  %9 = xor i1 %8, true
  br i1 %9, label %10, label %14

10:                                               ; preds = %5
  %11 = load ptr, ptr %4, align 8, !tbaa !117
  %12 = call i64 @rb_intern_const(ptr noundef %11) #18
  %13 = load ptr, ptr %3, align 8, !tbaa !116
  store i64 %12, ptr %13, align 8, !tbaa !12
  br label %5, !llvm.loop !118

14:                                               ; preds = %5
  %15 = load ptr, ptr %3, align 8, !tbaa !116
  %16 = load i64, ptr %15, align 8, !tbaa !12
  ret i64 %16
}

; Function Attrs: nounwind sspstrong uwtable
define internal i64 @rb_ast_parse_file(i64 noundef %0, i64 noundef %1, i64 noundef %2, i64 noundef %3) #0 {
  %5 = alloca i64, align 8
  %6 = alloca i64, align 8
  %7 = alloca i64, align 8
  %8 = alloca i64, align 8
  %9 = alloca i64, align 8
  %10 = alloca i64, align 8
  %11 = alloca ptr, align 8
  %12 = alloca i64, align 8
  %13 = alloca i64, align 8
  store i64 %0, ptr %5, align 8, !tbaa !12
  store i64 %1, ptr %6, align 8, !tbaa !12
  store i64 %2, ptr %7, align 8, !tbaa !12
  store i64 %3, ptr %8, align 8, !tbaa !12
  call void @llvm.lifetime.start.p0(i64 8, ptr %9) #16
  call void @llvm.lifetime.start.p0(i64 8, ptr %10) #16
  store i64 4, ptr %10, align 8, !tbaa !12
  call void @llvm.lifetime.start.p0(i64 8, ptr %11) #16
  %14 = call nonnull ptr @rb_utf8_encoding()
  store ptr %14, ptr %11, align 8, !tbaa !115
  %15 = load i64, ptr %5, align 8, !tbaa !12
  %16 = call i64 @rb_file_open_str(i64 noundef %15, ptr noundef @.str.25)
  store i64 %16, ptr %9, align 8, !tbaa !12
  %17 = load i64, ptr %9, align 8, !tbaa !12
  %18 = call i64 @rbimpl_intern_const(ptr noundef @rb_ast_parse_file.rbimpl_id, ptr noundef @.str.26) #20
  store i64 %18, ptr %12, align 8, !tbaa !12
  %19 = load i64, ptr %12, align 8, !tbaa !12
  %20 = load ptr, ptr %11, align 8, !tbaa !115
  %21 = call i64 @rb_enc_from_encoding(ptr noundef %20)
  %22 = call i64 @rbimpl_str_new_cstr(ptr noundef @.str.27)
  %23 = call i64 (i64, i64, i32, ...) @rb_funcall(i64 noundef %17, i64 noundef %19, i32 noundef 2, i64 noundef %21, i64 noundef %22)
  call void @llvm.lifetime.start.p0(i64 8, ptr %13) #16
  %24 = load i64, ptr %6, align 8, !tbaa !12
  %25 = load i64, ptr %7, align 8, !tbaa !12
  %26 = load i64, ptr %8, align 8, !tbaa !12
  %27 = call i64 @setup_vparser(i64 noundef %24, i64 noundef %25, i64 noundef %26)
  store i64 %27, ptr %13, align 8, !tbaa !12
  %28 = load i64, ptr %13, align 8, !tbaa !12
  %29 = load i64, ptr %9, align 8, !tbaa !12
  %30 = call i64 @rb_parser_compile_file_path(i64 noundef %28, i64 noundef 4, i64 noundef %29, i32 noundef 1)
  store i64 %30, ptr %10, align 8, !tbaa !12
  %31 = load i64, ptr %9, align 8, !tbaa !12
  %32 = call i64 @rb_io_close(i64 noundef %31)
  %33 = load i64, ptr %10, align 8, !tbaa !12
  %34 = call i64 @ast_parse_done(i64 noundef %33)
  call void @llvm.lifetime.end.p0(i64 8, ptr %13) #16
  call void @llvm.lifetime.end.p0(i64 8, ptr %11) #16
  call void @llvm.lifetime.end.p0(i64 8, ptr %10) #16
  call void @llvm.lifetime.end.p0(i64 8, ptr %9) #16
  ret i64 %34
}