; Function Attrs: nounwind sspstrong uwtable
define internal fastcc noundef i64 @rb_ast_parse_file(i64 noundef %0, i64 noundef %1, i64 noundef %2, i64 noundef %3) unnamed_addr #0 {
  %5 = tail call nonnull ptr @rb_utf8_encoding() #11
  %6 = tail call i64 @rb_file_open_str(i64 noundef %0, ptr noundef nonnull @.str.25) #11
  %.pr.i = load i64, ptr @rb_ast_parse_file.rbimpl_id, align 8, !tbaa !47
  %.not4.i = icmp eq i64 %.pr.i, 0
  br i1 %.not4.i, label %.lr.ph.i, label %rbimpl_intern_const.exit

.lr.ph.i:                                         ; preds = %4, %.lr.ph.i
  %7 = tail call i64 @rb_intern2(ptr noundef nonnull @.str.26, i64 noundef 12) #11
  store i64 %7, ptr @rb_ast_parse_file.rbimpl_id, align 8, !tbaa !47
  %.not.i = icmp eq i64 %7, 0
  br i1 %.not.i, label %.lr.ph.i, label %rbimpl_intern_const.exit, !llvm.loop !112

rbimpl_intern_const.exit:                         ; preds = %.lr.ph.i, %4
  %.lcssa.i = phi i64 [ %.pr.i, %4 ], [ %7, %.lr.ph.i ]
  %8 = tail call i64 @rb_enc_from_encoding(ptr noundef nonnull %5) #11
  %9 = tail call i64 @rb_str_new_static(ptr noundef nonnull @.str.27, i64 noundef 1) #11
  %10 = tail call i64 (i64, i64, i32, ...) @rb_funcall(i64 noundef %6, i64 noundef %.lcssa.i, i32 noundef 2, i64 noundef %8, i64 noundef %9) #11
  %11 = tail call i64 @rb_parser_new() #11
  %12 = tail call i64 @rb_parser_set_context(i64 noundef %11, ptr noundef null, i32 noundef 0) #11
  %13 = and i64 %1, -5
  %.not.i10 = icmp eq i64 %13, 0
  br i1 %.not.i10, label %15, label %14

14:                                               ; preds = %rbimpl_intern_const.exit
  tail call void @rb_parser_set_script_lines(i64 noundef %12) #11
  br label %15

15:                                               ; preds = %14, %rbimpl_intern_const.exit
  %16 = and i64 %2, -5
  %.not7.i = icmp eq i64 %16, 0
  br i1 %.not7.i, label %18, label %17

17:                                               ; preds = %15
  tail call void @rb_parser_error_tolerant(i64 noundef %12) #11
  br label %18

18:                                               ; preds = %17, %15
  %19 = and i64 %3, -5
  %.not8.i = icmp eq i64 %19, 0
  br i1 %.not8.i, label %setup_vparser.exit, label %20

20:                                               ; preds = %18
  tail call void @rb_parser_keep_tokens(i64 noundef %12) #11
  br label %setup_vparser.exit

setup_vparser.exit:                               ; preds = %18, %20
  %21 = tail call i64 @rb_parser_compile_file_path(i64 noundef %12, i64 noundef 4, i64 noundef %6, i32 noundef 1) #11
  %22 = tail call i64 @rb_io_close(i64 noundef %6) #11
  %23 = tail call ptr @rb_ruby_ast_data_get(i64 noundef %21) #11
  %24 = getelementptr inbounds nuw i8, ptr %23, i64 8
  %25 = load ptr, ptr %24, align 8, !tbaa !54
  %.not.i11 = icmp eq ptr %25, null
  br i1 %.not.i11, label %26, label %ast_parse_done.exit

26:                                               ; preds = %setup_vparser.exit
  tail call void @rb_ast_dispose(ptr noundef nonnull %23) #11
  %27 = tail call align 8 ptr @llvm.threadlocal.address.p0(ptr align 8 @ruby_current_ec)
  %28 = load ptr, ptr %27, align 8, !tbaa !60
  %29 = getelementptr inbounds nuw i8, ptr %28, i64 112
  %30 = load i64, ptr %29, align 8, !tbaa !62
  tail call void @rb_exc_raise(i64 noundef %30) #12
  unreachable

ast_parse_done.exit:                              ; preds = %setup_vparser.exit
  %31 = load i64, ptr @rb_cNode, align 8, !tbaa !47
  %32 = tail call i64 @rb_data_typed_object_zalloc(i64 noundef %31, i64 noundef 16, ptr noundef nonnull @rb_node_type) #11
  %33 = tail call ptr @rb_check_typeddata(i64 noundef %32, ptr noundef nonnull @rb_node_type) #11
  store i64 %21, ptr %33, align 8, !tbaa !70
  %34 = getelementptr inbounds nuw i8, ptr %33, i64 8
  store ptr %25, ptr %34, align 8, !tbaa !72
  ret i64 %32
}